; ModuleID = '52/1822.c'
source_filename = "52/1822.c"
target datalayout = "e-m:e-p270:32:32-p271:32:32-p272:64:64-i64:64-f80:128-n8:16:32:64-S128"
target triple = "x86_64-pc-linux-gnu"

@.str = private unnamed_addr constant [5 x i8] c"%d%d\00", align 1
@.str.1 = private unnamed_addr constant [3 x i8] c"%d\00", align 1
@.str.2 = private unnamed_addr constant [4 x i8] c"%d \00", align 1
@.str.3 = private unnamed_addr constant [4 x i8] c"%d\0A\00", align 1

; Function Attrs: noinline nounwind uwtable
define dso_local i32 @main() #0 {
  %1 = alloca i32, align 4
  %2 = alloca [110 x i32], align 16
  %3 = alloca i32*, align 8
  %4 = alloca i32, align 4
  %5 = alloca i32, align 4
  %6 = alloca i32, align 4
  %7 = alloca i32, align 4
  store i32 0, i32* %1, align 4
  %8 = getelementptr inbounds [110 x i32], [110 x i32]* %2, i64 0, i64 0
  store i32* %8, i32** %3, align 8
  %9 = call i32 (i8*, ...) @__isoc99_scanf(i8* getelementptr inbounds ([5 x i8], [5 x i8]* @.str, i64 0, i64 0), i32* %4, i32* %5)
  store i32 0, i32* %6, align 4
  br label %10

10:                                               ; preds = %20, %0
  %11 = load i32, i32* %6, align 4
  %12 = load i32, i32* %4, align 4
  %13 = icmp slt i32 %11, %12
  br i1 %13, label %14, label %23

14:                                               ; preds = %10
  %15 = load i32*, i32** %3, align 8
  %16 = load i32, i32* %6, align 4
  %17 = sext i32 %16 to i64
  %18 = getelementptr inbounds i32, i32* %15, i64 %17
  %19 = call i32 (i8*, ...) @__isoc99_scanf(i8* getelementptr inbounds ([3 x i8], [3 x i8]* @.str.1, i64 0, i64 0), i32* %18)
  br label %20

20:                                               ; preds = %14
  %21 = load i32, i32* %6, align 4
  %22 = add nsw i32 %21, 1
  store i32 %22, i32* %6, align 4
  br label %10

23:                                               ; preds = %10
  %24 = load i32*, i32** %3, align 8
  %25 = load i32, i32* %5, align 4
  %26 = load i32, i32* %4, align 4
  call void @move(i32* %24, i32 %25, i32 %26)
  store i32 0, i32* %6, align 4
  br label %27

27:                                               ; preds = %39, %23
  %28 = load i32, i32* %6, align 4
  %29 = load i32, i32* %4, align 4
  %30 = sub nsw i32 %29, 1
  %31 = icmp slt i32 %28, %30
  br i1 %31, label %32, label %42

32:                                               ; preds = %27
  %33 = getelementptr inbounds [110 x i32], [110 x i32]* %2, i64 0, i64 0
  %34 = load i32, i32* %6, align 4
  %35 = sext i32 %34 to i64
  %36 = getelementptr inbounds i32, i32* %33, i64 %35
  %37 = load i32, i32* %36, align 4
  %38 = call i32 (i8*, ...) @printf(i8* getelementptr inbounds ([4 x i8], [4 x i8]* @.str.2, i64 0, i64 0), i32 %37)
  br label %39

39:                                               ; preds = %32
  %40 = load i32, i32* %6, align 4
  %41 = add nsw i32 %40, 1
  store i32 %41, i32* %6, align 4
  br label %27

42:                                               ; preds = %27
  %43 = getelementptr inbounds [110 x i32], [110 x i32]* %2, i64 0, i64 0
  %44 = load i32, i32* %4, align 4
  %45 = sext i32 %44 to i64
  %46 = getelementptr inbounds i32, i32* %43, i64 %45
  %47 = getelementptr inbounds i32, i32* %46, i64 -1
  %48 = load i32, i32* %47, align 4
  %49 = call i32 (i8*, ...) @printf(i8* getelementptr inbounds ([4 x i8], [4 x i8]* @.str.3, i64 0, i64 0), i32 %48)
  %50 = call i32 @getchar()
  %51 = call i32 @getchar()
  %52 = load i32, i32* %1, align 4
  ret i32 %52
}

declare dso_local i32 @__isoc99_scanf(i8*, ...) #1

; Function Attrs: noinline nounwind uwtable
define dso_local void @move(i32* %0, i32 %1, i32 %2) #0 {
  %4 = alloca i32*, align 8
  %5 = alloca i32, align 4
  %6 = alloca i32, align 4
  %7 = alloca i32, align 4
  %8 = alloca i32, align 4
  %9 = alloca i32, align 4
  store i32* %0, i32** %4, align 8
  store i32 %1, i32* %5, align 4
  store i32 %2, i32* %6, align 4
  %10 = load i32, i32* %6, align 4
  %11 = load i32, i32* %5, align 4
  %12 = sub nsw i32 %10, %11
  store i32 %12, i32* %8, align 4
  br label %13

13:                                               ; preds = %54, %3
  %14 = load i32, i32* %8, align 4
  %15 = load i32, i32* %6, align 4
  %16 = icmp slt i32 %14, %15
  br i1 %16, label %17, label %57

17:                                               ; preds = %13
  %18 = load i32, i32* %8, align 4
  %19 = sub nsw i32 %18, 1
  store i32 %19, i32* %9, align 4
  br label %20

20:                                               ; preds = %50, %17
  %21 = load i32, i32* %9, align 4
  %22 = load i32, i32* %5, align 4
  %23 = load i32, i32* %6, align 4
  %24 = sub nsw i32 %22, %23
  %25 = load i32, i32* %8, align 4
  %26 = add nsw i32 %24, %25
  %27 = icmp sge i32 %21, %26
  br i1 %27, label %28, label %53

28:                                               ; preds = %20
  %29 = load i32*, i32** %4, align 8
  %30 = load i32, i32* %9, align 4
  %31 = sext i32 %30 to i64
  %32 = getelementptr inbounds i32, i32* %29, i64 %31
  %33 = load i32, i32* %32, align 4
  store i32 %33, i32* %7, align 4
  %34 = load i32*, i32** %4, align 8
  %35 = load i32, i32* %9, align 4
  %36 = sext i32 %35 to i64
  %37 = getelementptr inbounds i32, i32* %34, i64 %36
  %38 = getelementptr inbounds i32, i32* %37, i64 1
  %39 = load i32, i32* %38, align 4
  %40 = load i32*, i32** %4, align 8
  %41 = load i32, i32* %9, align 4
  %42 = sext i32 %41 to i64
  %43 = getelementptr inbounds i32, i32* %40, i64 %42
  store i32 %39, i32* %43, align 4
  %44 = load i32, i32* %7, align 4
  %45 = load i32*, i32** %4, align 8
  %46 = load i32, i32* %9, align 4
  %47 = sext i32 %46 to i64
  %48 = getelementptr inbounds i32, i32* %45, i64 %47
  %49 = getelementptr inbounds i32, i32* %48, i64 1
  store i32 %44, i32* %49, align 4
  br label %50

50:                                               ; preds = %28
  %51 = load i32, i32* %9, align 4
  %52 = add nsw i32 %51, -1
  store i32 %52, i32* %9, align 4
  br label %20

53:                                               ; preds = %20
  br label %54

54:                                               ; preds = %53
  %55 = load i32, i32* %8, align 4
  %56 = add nsw i32 %55, 1
  store i32 %56, i32* %8, align 4
  br label %13

57:                                               ; preds = %13
  ret void
}

declare dso_local i32 @printf(i8*, ...) #1

declare dso_local i32 @getchar() #1


!llvm.module.flags = !{!0}
!llvm.ident = !{!1}

!0 = !{i32 1, !"wchar_size", i32 4}
!1 = !{!"clang version 10.0.0-4ubuntu1 "}
